(dp1
S'output'
p2
S'<class \'psycopg2.ProgrammingError\'> relation "country" already exists\n'
p3
sS'layer'
p4
S'/home/samara/Documentos/web2py/applications/TG/models/db.py'
p5
sS'code'
p6
S"# -*- coding: utf-8 -*-\n\n#########################################################################\n## This scaffolding model makes your app work on Google App Engine too\n## File is released under public domain and you can use without limitations\n#########################################################################\n\n## if SSL/HTTPS is properly configured and you want all HTTP requests to\n## be redirected to HTTPS, uncomment the line below:\n# request.requires_https()\n\n## app configuration made easy. Look inside private/appconfig.ini\nfrom gluon.contrib.appconfig import AppConfig\nfrom datetime import datetime\n## once in production, remove reload=True to gain full speed\nmyconf = AppConfig(reload=True)\n\n\nglobal teste \nif not request.env.web2py_runtime_gae:\n    ## if NOT running on Google App Engine use SQLite or other DB\n    #db = DAL(myconf.take('db.uri'), pool_size=myconf.take('db.pool_size', cast=int), check_reserved=['all'],migrate = True)\n    db = DAL('postgres://postgres:q1w2E#R$@188.166.24.73/TG_Samara',pool_size=1,check_reserved=['all'],migrate = True)\nelse:\n    ## connect to Google BigTable (optional 'google:datastore://namespace')\n    db = DAL('google:datastore+ndb')\n    ## store sessions and tickets there\n    session.connect(request, response, db=db)\n    ## or store session in Memcache, Redis, etc.\n    ## from gluon.contrib.memdb import MEMDB\n    ## from google.appengine.api.memcache import Client\n    ## session.connect(request, response, db = MEMDB(Client()))\n\n## by default give a view/generic.extension to all actions from localhost\n## none otherwise. a pattern can be 'controller/function.extension'\nresponse.generic_patterns = ['*'] if request.is_local else []\n## choose a style for forms\nresponse.formstyle = myconf.take('forms.formstyle')  # or 'bootstrap3_stacked' or 'bootstrap2' or other\nresponse.form_label_separator = myconf.take('forms.separator')\n\n\n## (optional) optimize handling of static files\n# response.optimize_css = 'concat,minify,inline'\n# response.optimize_js = 'concat,minify,inline'\n## (optional) static assets folder versioning\n# response.static_version = '0.0.0'\n#########################################################################\n## Here is sample code if you need for\n## - email capabilities\n## - authentication (registration, login, logout, ... )\n## - authorization (role based authorization)\n## - services (xml, csv, json, xmlrpc, jsonrpc, amf, rss)\n## - old style crud actions\n## (more options discussed in gluon/tools.py)\n#########################################################################\n\nfrom gluon.tools import Auth, Service, PluginManager\n\nauth = Auth(db)\nservice = Service()\nplugins = PluginManager()\n\n\n## configure email\nmail = auth.settings.mailer\nmail.settings.server = 'logging' if request.is_local else myconf.take('smtp.server')\nmail.settings.sender = myconf.take('smtp.sender')\nmail.settings.login = myconf.take('smtp.login')\n\n## configure auth policy\nauth.settings.registration_requires_verification = False\nauth.settings.registration_requires_approval = False\nauth.settings.reset_password_requires_verification = True\n\n#########################################################################\n## Define your tables below (or better in another model file) for example\n##\n## >>> db.define_table('mytable',Field('myfield','string'))\n##\n## Fields can be 'string','text','password','integer','double','boolean'\n##       'date','time','datetime','blob','upload', 'reference TABLENAME'\n## There is an implicit 'id integer autoincrement' field\n## Consult manual for more options, validators, etc.\n##\n## More API examples for controllers:\n##\n## >>> db.mytable.insert(myfield='value')\n## >>> rows=db(db.mytable.myfield=='value').select(db.mytable.ALL)\n## >>> for row in rows: print row.id, row.myfield\n#########################################################################\n\n## after defining tables, uncomment below to enable auditing\n# auth.enable_record_versioning(db)\n\n\ndb.define_table('country',\n    Field('name',requires=IS_NOT_EMPTY(),unique=True,length=128,label='Nome do Pais'),\n    format='%(name)s')\n\n\ndb.define_table('province',\n    Field('name',requires=IS_NOT_EMPTY(),unique=True,length=128,label='Nome do Estado/Provincia'),\n    Field('country',db.country,writable=False,readable=True, label='Pais'),\n    format='%(name)s')\n\ndb.province.country.requires = IS_IN_DB(db,'country.id', '%(name)s',\n                                          zero=T('Selecione'))\n\ndb.define_table('city',\n    Field('created','datetime',writable=False,readable=False,label='Criado',default=datetime.now()),\n    Field('last_update','datetime',writable=False,readable=False,label='\xc3\x9altima Atualiza\xc3\xa7\xc3\xa3o',default=datetime.now()),\n    Field('name',requires=IS_NOT_EMPTY(),length=50,label='Nome da Cidade'),\n    Field('province',db.province,writable=False,readable=True, label='Estado/Provincia'),\n    Field('deleted','boolean',writable=False,readable=False,label='Dele\xc3\xa7\xc3\xa3o L\xc3\xb3gica',default='F'),\n    Field('last_user','integer',label='\xc3\x9altimo Usuario'),\n    format='%(name)s')\n\ndb.city.province.requires = IS_IN_DB(db,'province.id', '%(name)s',zero=T('Selecione'))\n\n\ndb.define_table('company',\n    Field('created','datetime',writable=False,readable=False,label='Criado',default=datetime.now()),\n    Field('last_update','datetime',writable=False,readable=False,label='\xc3\x9altima Atualiza\xc3\xa7\xc3\xa3o',default=datetime.now()),\n    Field('name_cmp',length=256,requires=IS_NOT_EMPTY(),label='Nome'),\n    Field('cnpj',length=127,requires=IS_NOT_EMPTY(),label='CNPJ'),\n    Field('city_cmp',db.city,requires=IS_NOT_EMPTY(),notnull=True,label='Cidade'),\n    Field('address_cmp',length=300,label='Endere\xc3\xa7o'),\n    Field('address_number_cmp','integer',label='N\xc3\xbamero'),\n    Field('neigh_cmp',length=50,label='Bairro'),\n    Field('comp_cmp',length=50,label='Complemento'),\n    Field('zipcode_cmp',length=10,label='CEP'),\n    Field('actived_cmp','boolean',label='Empresa Ativa',default=True),\n    Field('deleted','boolean',writable=False,readable=False,label='Dele\xc3\xa7\xc3\xa3o L\xc3\xb3gica',default='F'),\n    Field('last_user','integer',label='\xc3\x9altimo Usuario'),\n    format='%(name_cmp)s')\n\ndb.company.city_cmp.requires = IS_IN_DB(db,'city.id','%(name)s',zero=T('Selecione'))\n\n\nauth.settings.extra_fields['auth_user'] = [\n    Field('created','datetime',writable=False,readable=False,label='Criado',default=datetime.now()),\n    Field('last_update','datetime',writable=False,readable=False,label='\xc3\x9altima Atualiza\xc3\xa7\xc3\xa3o',default=datetime.now()),\n    Field('email',length=100,label='E-mail'),\n    Field('cpf',length=50,label='CPF'),\n    Field('rg',length=50,label='RG'),\n    Field('birth',type='date',label='Data de Nascimento'),\n    Field('address',length=300,label='Endere\xc3\xa7o'),\n    Field('address_number','integer',label='N\xc3\xbamero'),\n    Field('comp_user',length=50,label='Complemento'),\n    Field('city_user',db.city,requires=IS_EMPTY_OR(IS_IN_DB(db, 'city.id', '%(id)s')),\n              represent=lambda id, row: db.city(id).name if id else '',label='Cidade'),\n    Field('neigh',length=50,label='Bairro'),\n    Field('zipcode',length=10,label='CEP'),\n    Field('actived_user','boolean',label='Usu\xc3\xa1rio ativo',default=True),\n    Field('last_user','integer',label='\xc3\x9altimo Usuario'),\n    Field('company',db.company,requires=IS_EMPTY_OR(IS_IN_DB(db, 'company.id', '%(id)s')),\n              represent=lambda id, row: db.company(id).name_cmp if id else '',writable=False,readable=True, label='Empresa'),\n    Field('deleted','boolean',writable=False,readable=False,label='Dele\xc3\xa7\xc3\xa3o L\xc3\xb3gica',default='F')\n    \n]\n\nauth.define_tables(username=False, signature=False)\n\ndb.define_table('person',\n        Field('created','datetime',writable=False,readable=False,label='Criado',default=datetime.now()),\n        Field('last_update','datetime',writable=False,readable=False,label='\xc3\x9altima Atualiza\xc3\xa7\xc3\xa3o',default=datetime.now()),\n        Field('full_name',length=50,label='Nome'),\n        Field('birth_date',type='date',label='Data de Nascimento'),\n        Field('cpf',length=50,label='CPF'),\n        Field('rg',length=50,label='RG'),\n        Field('email',length=100,label='E-mail'),\n        Field('cellphone',length=100,label='Celular'),\n        Field('keypoints1',length=50000,label='keypoints 1'),\n        Field('keypoints2',length=50000,label='keypoints 2'),\n        Field('sex','boolean',label='Sexo'),\n        Field('street_number',length=5,label='Numero'),\n        Field('comp_person',length=50,label='Complemento'),\n        Field('neigh',length=50,label='Bairro'),\n        Field('street',length=100,label='Logradouro'),\n        Field('zipcode',length=10,label='CEP'),\n        Field('city_person',db.city,label='Cidade'),\n        Field('marital_status',type='integer',label='Estado civil'),\n        Field('deleted','boolean',writable=False,readable=False,label='Dele\xc3\xa7\xc3\xa3o L\xc3\xb3gica',default='F'),\n        Field('company',db.company,requires=IS_EMPTY_OR(IS_IN_DB(db, 'company.id', '%(id)s')),\n                  represent=lambda id, row: db.company(id).name_cmp if id else '',label='Empresa'),\n        Field('last_user',db.auth_user,requires=IS_EMPTY_OR(IS_IN_DB(db, 'auth_user.id', '%(id)s')),\n                  represent=lambda id, row: db.auth_user(id).id if id else '',label='Usuario'),\n        format='%(first_name)s')\n    \ndb.person.company.requires = IS_IN_DB(db,'company.id','%(name_cmp)s',zero=T('Selecione'))\ndb.person.last_user.requires = IS_IN_DB(db,'auth_user.id','%(first_name)s',zero=T('Selecione'))\n\n  \n\n\n\nauth._next = None\nauth.settings.login_next=URL('default','update_session')\nauth.settings.logout_next = URL('default','index')\nauth.settings.registration_requires_verification = False\nauth.settings.registration_requires_approval = False\nauth.settings.reset_password_requires_verification = True\nauth.settings.actions_disabled.append('register')\nauth.settings.actions_disabled.append('profile')\nauth.settings.login_captcha = False     #adicionar captcha\nauth.settings.password_min_length = 8   #tamanho do password\nauth.settings.expiration = 10800 #segundos  4 horas\nauth.settings.remember_me_form = False\nauth.settings.retrieve_password_captcha = False\ndb.auth_user.email.label=T('E-mail')\ndb.auth_user.password.label=T('Password')"
p7
sS'snapshot'
p8
(dp9
S'exception'
p10
(dp11
S'__module__'
p12
S"'psycopg2'"
p13
sS'__getslice__'
p14
S"<method-wrapper '__getslice__' of ProgrammingError object>"
p15
sS'__str__'
p16
S"<method-wrapper '__str__' of ProgrammingError object>"
p17
sS'__reduce__'
p18
S'<built-in method __reduce__ of ProgrammingError object>'
p19
sS'__dict__'
p20
S'{\'cursor\': <cursor object at 0x7f3b8c034ce8; closed: 0>, \'pgcode\': \'42P07\', \'pgerror\': \'ERROR:  relation "country" already exists\\n\'}'
p21
sS'__sizeof__'
p22
S'<built-in method __sizeof__ of ProgrammingError object>'
p23
sS'__weakref__'
p24
S'None'
p25
sS'__init__'
p26
S"<method-wrapper '__init__' of ProgrammingError object>"
p27
sS'__setattr__'
p28
S"<method-wrapper '__setattr__' of ProgrammingError object>"
p29
sS'__reduce_ex__'
p30
S'<built-in method __reduce_ex__ of ProgrammingError object>'
p31
sS'__new__'
p32
S'<built-in method __new__ of type object>'
p33
sS'__format__'
p34
S'<built-in method __format__ of ProgrammingError object>'
p35
sS'__class__'
p36
S"<class 'psycopg2.ProgrammingError'>"
p37
sS'pgerror'
p38
S'\'ERROR:  relation "country" already exists\\n\''
p39
sS'__doc__'
p40
S"'Error related to database programming (SQL error, table not found etc).'"
p41
sS'__getitem__'
p42
S"<method-wrapper '__getitem__' of ProgrammingError object>"
p43
sS'__setstate__'
p44
S'<built-in method __setstate__ of ProgrammingError object>'
p45
sS'__getattribute__'
p46
S"<method-wrapper '__getattribute__' of ProgrammingError object>"
p47
sS'args'
p48
S'(\'relation "country" already exists\\n\',)'
p49
sS'__subclasshook__'
p50
S'<built-in method __subclasshook__ of type object>'
p51
sS'pgcode'
p52
S"'42P07'"
p53
sS'__unicode__'
p54
S'<built-in method __unicode__ of ProgrammingError object>'
p55
sS'cursor'
p56
S'<cursor object at 0x7f3b8c034ce8; closed: 0>'
p57
sS'__delattr__'
p58
S"<method-wrapper '__delattr__' of ProgrammingError object>"
p59
sS'__repr__'
p60
S"<method-wrapper '__repr__' of ProgrammingError object>"
p61
sS'__hash__'
p62
S"<method-wrapper '__hash__' of ProgrammingError object>"
p63
ssS'evalue'
p64
S'relation "country" already exists\n'
p65
sS'request'
p66
cgluon.html
XML_unpickle
p67
(S's\xe2Z\x00\x00<div><table><tr><td style="font-weight:bold;vertical-align:top;">ajax</td><td style="vertical-align:top;">:</td><td><div>False</div></td></tr><tr><td style="font-weight:bold;vertical-align:top;">application</td><td style="vertical-align:top;">:</td><td><div>TG</div></td></tr><tr><td style="font-weight:bold;vertical-align:top;">args</td><td style="vertical-align:top;">:</td><td><div><table></table></div></td></tr><tr><td style="font-weight:bold;vertical-align:top;">cid</td><td style="vertical-align:top;">:</td><td><div>None</div></td></tr><tr><td style="font-weight:bold;vertical-align:top;">client</td><td style="vertical-align:top;">:</td><td><div>127.0.0.1</div></td></tr><tr><td style="font-weight:bold;vertical-align:top;">controller</td><td style="vertical-align:top;">:</td><td><div>default</div></td></tr><tr><td style="font-weight:bold;vertical-align:top;">cookies</td><td style="vertical-align:top;">:</td><td><div><table><tr><td style="font-weight:bold;vertical-align:top;">session_id_admin</td><td style="vertical-align:top;">:</td><td><div>127.0.0.1-9c2a7fce-7615-4261-a56b-bd7e01560e5a<table><tr><td style="font-weight:bold;vertical-align:top;">comment</td><td style="vertical-align:top;">:</td><td><div></div></td></tr><tr><td style="font-weight:bold;vertical-align:top;">domain</td><td style="vertical-align:top;">:</td><td><div></div></td></tr><tr><td style="font-weight:bold;vertical-align:top;">expires</td><td style="vertical-align:top;">:</td><td><div></div></td></tr><tr><td style="font-weight:bold;vertical-align:top;">httponly</td><td style="vertical-align:top;">:</td><td><div></div></td></tr><tr><td style="font-weight:bold;vertical-align:top;">max-age</td><td style="vertical-align:top;">:</td><td><div></div></td></tr><tr><td style="font-weight:bold;vertical-align:top;">path</td><td style="vertical-align:top;">:</td><td><div></div></td></tr><tr><td style="font-weight:bold;vertical-align:top;">secure</td><td style="vertical-align:top;">:</td><td><div></div></td></tr><tr><td style="font-weight:bold;vertical-align:top;">version</td><td style="vertical-align:top;">:</td><td><div></div></td></tr></table></div></td></tr><tr><td style="font-weight:bold;vertical-align:top;">session_id_tg</td><td style="vertical-align:top;">:</td><td><div>127.0.0.1-8020da04-a72d-4bab-b001-5000f8361e8b<table><tr><td style="font-weight:bold;vertical-align:top;">comment</td><td style="vertical-align:top;">:</td><td><div></div></td></tr><tr><td style="font-weight:bold;vertical-align:top;">domain</td><td style="vertical-align:top;">:</td><td><div></div></td></tr><tr><td style="font-weight:bold;vertical-align:top;">expires</td><td style="vertical-align:top;">:</td><td><div></div></td></tr><tr><td style="font-weight:bold;vertical-align:top;">httponly</td><td style="vertical-align:top;">:</td><td><div></div></td></tr><tr><td style="font-weight:bold;vertical-align:top;">max-age</td><td style="vertical-align:top;">:</td><td><div></div></td></tr><tr><td style="font-weight:bold;vertical-align:top;">path</td><td style="vertical-align:top;">:</td><td><div></div></td></tr><tr><td style="font-weight:bold;vertical-align:top;">secure</td><td style="vertical-align:top;">:</td><td><div></div></td></tr><tr><td style="font-weight:bold;vertical-align:top;">version</td><td style="vertical-align:top;">:</td><td><div></div></td></tr></table></div></td></tr><tr><td style="font-weight:bold;vertical-align:top;">session_id_welcome</td><td style="vertical-align:top;">:</td><td><div>127.0.0.1-775fcda9-a743-4ee1-bd71-f333bcce9e49<table><tr><td style="font-weight:bold;vertical-align:top;">comment</td><td style="vertical-align:top;">:</td><td><div></div></td></tr><tr><td style="font-weight:bold;vertical-align:top;">domain</td><td style="vertical-align:top;">:</td><td><div></div></td></tr><tr><td style="font-weight:bold;vertical-align:top;">expires</td><td style="vertical-align:top;">:</td><td><div></div></td></tr><tr><td style="font-weight:bold;vertical-align:top;">httponly</td><td style="vertical-align:top;">:</td><td><div></div></td></tr><tr><td style="font-weight:bold;vertical-align:top;">max-age</td><td style="vertical-align:top;">:</td><td><div></div></td></tr><tr><td style="font-weight:bold;vertical-align:top;">path</td><td style="vertical-align:top;">:</td><td><div></div></td></tr><tr><td style="font-weight:bold;vertical-align:top;">secure</td><td style="vertical-align:top;">:</td><td><div></div></td></tr><tr><td style="font-weight:bold;vertical-align:top;">version</td><td style="vertical-align:top;">:</td><td><div></div></td></tr></table></div></td></tr></table></div></td></tr><tr><td style="font-weight:bold;vertical-align:top;">env</td><td style="vertical-align:top;">:</td><td><div><table><tr><td style="font-weight:bold;vertical-align:top;">HTTP_ACCEPT</td><td style="vertical-align:top;">:</td><td><div>text/html,application/xhtml+xml,application/xml;q=0.9,image/webp,*/*;q=0.8</div></td></tr><tr><td style="font-weight:bold;vertical-align:top;">HTTP_ACCEPT_ENCODING</td><td style="vertical-align:top;">:</td><td><div>gzip, deflate, sdch</div></td></tr><tr><td style="font-weight:bold;vertical-align:top;">HTTP_ACCEPT_LANGUAGE</td><td style="vertical-align:top;">:</td><td><div>pt-BR,pt;q=0.8,en-US;q=0.6,en;q=0.4</div></td></tr><tr><td style="font-weight:bold;vertical-align:top;">HTTP_CACHE_CONTROL</td><td style="vertical-align:top;">:</td><td><div>max-age=0</div></td></tr><tr><td style="font-weight:bold;vertical-align:top;">HTTP_CONNECTION</td><td style="vertical-align:top;">:</td><td><div>keep-alive</div></td></tr><tr><td style="font-weight:bold;vertical-align:top;">HTTP_COOKIE</td><td style="vertical-align:top;">:</td><td><div>session_id_welcome=127.0.0.1-775fcda9-a743-4ee1-bd71-f333bcce9e49; session_id_admin=127.0.0.1-9c2a7fce-7615-4261-a56b-bd7e01560e5a; session_id_tg=127.0.0.1-8020da04-a72d-4bab-b001-5000f8361e8b</div></td></tr><tr><td style="font-weight:bold;vertical-align:top;">HTTP_HOST</td><td style="vertical-align:top;">:</td><td><div>127.0.0.1:8000</div></td></tr><tr><td style="font-weight:bold;vertical-align:top;">HTTP_UPGRADE_INSECURE_REQUESTS</td><td style="vertical-align:top;">:</td><td><div>1</div></td></tr><tr><td style="font-weight:bold;vertical-align:top;">HTTP_USER_AGENT</td><td style="vertical-align:top;">:</td><td><div>Mozilla/5.0 (X11; Linux x86_64) AppleWebKit/537.36 (KHTML, like Gecko) Chrome/45.0.2454.99 Safari/537.36</div></td></tr><tr><td style="font-weight:bold;vertical-align:top;">PATH_INFO</td><td style="vertical-align:top;">:</td><td><div>/TG/default</div></td></tr><tr><td style="font-weight:bold;vertical-align:top;">QUERY_STRING</td><td style="vertical-align:top;">:</td><td><div></div></td></tr><tr><td style="font-weight:bold;vertical-align:top;">REMOTE_ADDR</td><td style="vertical-align:top;">:</td><td><div>127.0.0.1</div></td></tr><tr><td style="font-weight:bold;vertical-align:top;">REMOTE_PORT</td><td style="vertical-align:top;">:</td><td><div>56786</div></td></tr><tr><td style="font-weight:bold;vertical-align:top;">REQUEST_METHOD</td><td style="vertical-align:top;">:</td><td><div>GET</div></td></tr><tr><td style="font-weight:bold;vertical-align:top;">SCRIPT_NAME</td><td style="vertical-align:top;">:</td><td><div></div></td></tr><tr><td style="font-weight:bold;vertical-align:top;">SERVER_NAME</td><td style="vertical-align:top;">:</td><td><div>samara-X450LA</div></td></tr><tr><td style="font-weight:bold;vertical-align:top;">SERVER_PORT</td><td style="vertical-align:top;">:</td><td><div>8000</div></td></tr><tr><td style="font-weight:bold;vertical-align:top;">SERVER_PROTOCOL</td><td style="vertical-align:top;">:</td><td><div>HTTP/1.1</div></td></tr><tr><td style="font-weight:bold;vertical-align:top;">SERVER_SOFTWARE</td><td style="vertical-align:top;">:</td><td><div>Rocket 1.2.6</div></td></tr><tr><td style="font-weight:bold;vertical-align:top;">app_folders</td><td style="vertical-align:top;">:</td><td><div>set([&#x27;/home/samara/Documentos/web2py/applications/TG/&#x27;])</div></td></tr><tr><td style="font-weight:bold;vertical-align:top;">applications_parent</td><td style="vertical-align:top;">:</td><td><div>/home/samara/Documentos/web2py</div></td></tr><tr><td style="font-weight:bold;vertical-align:top;">cmd_args</td><td style="vertical-align:top;">:</td><td><div><table></table></div></td></tr><tr><td style="font-weight:bold;vertical-align:top;">cmd_options</td><td style="vertical-align:top;">:</td><td><div>&lt;Values at 0x7f3b8c140ea8: {&#x27;verbose&#x27;: False, &#x27;ip&#x27;: &#x27;127.0.0.1&#x27;, &#x27;debuglevel&#x27;: 30, &#x27;with_scheduler&#x27;: False, &#x27;ips&#x27;: [&#x27;127.0.1.1&#x27;], &#x27;shutdown_timeout&#x27;: 5, &#x27;taskbar&#x27;: False, &#x27;with_coverage&#x27;: False, &#x27;scheduler_groups&#x27;: None, &#x27;port&#x27;: 8000, &#x27;maxthreads&#x27;: None, &#x27;softcron&#x27;: False, &#x27;server_name&#x27;: &#x27;samara-X450LA&#x27;, &#x27;bpython&#x27;: False, &#x27;nogui&#x27;: False, &#x27;pid_filename&#x27;: &#x27;httpserver.pid&#x27;, &#x27;print_errors&#x27;: False, &#x27;extcron&#x27;: False, &#x27;runcron&#x27;: False, &#x27;run_system_tests&#x27;: False, &#x27;test&#x27;: None, &#x27;folder&#x27;: &#x27;/home/samara/Documentos/web2py&#x27;, &#x27;config&#x27;: &#x27;&#x27;, &#x27;minthreads&#x27;: None, &#x27;shell&#x27;: None, &#x27;run&#x27;: &#x27;&#x27;, &#x27;log_filename&#x27;: &#x27;httpserver.log&#x27;, &#x27;profiler_dir&#x27;: None, &#x27;args&#x27;: [&#x27;&#x27;], &#x27;socket_timeout&#x27;: 5, &#x27;ssl_ca_certificate&#x27;: None, &#x27;scheduler&#x27;: None, &#x27;interfaces&#x27;: None, &#x27;ssl_private_key&#x27;: &#x27;&#x27;, &#x27;gae&#x27;: None, &#x27;password&#x27;: &#x27;admin&#x27;, &#x27;request_queue_size&#x27;: 5, &#x27;ssl_certificate&#x27;: &#x27;&#x27;, &#x27;cronjob&#x27;: False, &#x27;numthreads&#x27;: None, &#x27;quiet&#x27;: False, &#x27;import_models&#x27;: False, &#x27;timeout&#x27;: 10, &#x27;plain&#x27;: False, &#x27;nobanner&#x27;: False}&gt;</div></td></tr><tr><td style="font-weight:bold;vertical-align:top;">db_sessions</td><td style="vertical-align:top;">:</td><td><div>set([])</div></td></tr><tr><td style="font-weight:bold;vertical-align:top;">debugging</td><td style="vertical-align:top;">:</td><td><div>False</div></td></tr><tr><td style="font-weight:bold;vertical-align:top;">gluon_parent</td><td style="vertical-align:top;">:</td><td><div>/home/samara/Documentos/web2py</div></td></tr><tr><td style="font-weight:bold;vertical-align:top;">http_accept</td><td style="vertical-align:top;">:</td><td><div>text/html,application/xhtml+xml,application/xml;q=0.9,image/webp,*/*;q=0.8</div></td></tr><tr><td style="font-weight:bold;vertical-align:top;">http_accept_encoding</td><td style="vertical-align:top;">:</td><td><div>gzip, deflate, sdch</div></td></tr><tr><td style="font-weight:bold;vertical-align:top;">http_accept_language</td><td style="vertical-align:top;">:</td><td><div>pt-BR,pt;q=0.8,en-US;q=0.6,en;q=0.4</div></td></tr><tr><td style="font-weight:bold;vertical-align:top;">http_cache_control</td><td style="vertical-align:top;">:</td><td><div>max-age=0</div></td></tr><tr><td style="font-weight:bold;vertical-align:top;">http_connection</td><td style="vertical-align:top;">:</td><td><div>keep-alive</div></td></tr><tr><td style="font-weight:bold;vertical-align:top;">http_cookie</td><td style="vertical-align:top;">:</td><td><div>session_id_welcome=127.0.0.1-775fcda9-a743-4ee1-bd71-f333bcce9e49; session_id_admin=127.0.0.1-9c2a7fce-7615-4261-a56b-bd7e01560e5a; session_id_tg=127.0.0.1-8020da04-a72d-4bab-b001-5000f8361e8b</div></td></tr><tr><td style="font-weight:bold;vertical-align:top;">http_host</td><td style="vertical-align:top;">:</td><td><div>127.0.0.1:8000</div></td></tr><tr><td style="font-weight:bold;vertical-align:top;">http_upgrade_insecure_requests</td><td style="vertical-align:top;">:</td><td><div>1</div></td></tr><tr><td style="font-weight:bold;vertical-align:top;">http_user_agent</td><td style="vertical-align:top;">:</td><td><div>Mozilla/5.0 (X11; Linux x86_64) AppleWebKit/537.36 (KHTML, like Gecko) Chrome/45.0.2454.99 Safari/537.36</div></td></tr><tr><td style="font-weight:bold;vertical-align:top;">is_jython</td><td style="vertical-align:top;">:</td><td><div>False</div></td></tr><tr><td style="font-weight:bold;vertical-align:top;">is_pypy</td><td style="vertical-align:top;">:</td><td><div>False</div></td></tr><tr><td style="font-weight:bold;vertical-align:top;">is_source</td><td style="vertical-align:top;">:</td><td><div>True</div></td></tr><tr><td style="font-weight:bold;vertical-align:top;">local_hosts</td><td style="vertical-align:top;">:</td><td><div><table><tr><td><div>samara-X450LA</div></td></tr><tr><td><div>::1</div></td></tr><tr><td><div>127.0.1.1</div></td></tr><tr><td><div>::ffff:127.0.0.1</div></td></tr><tr><td><div>127.0.0.1</div></td></tr></table></div></td></tr><tr><td style="font-weight:bold;vertical-align:top;">path_info</td><td style="vertical-align:top;">:</td><td><div>/TG/default</div></td></tr><tr><td style="font-weight:bold;vertical-align:top;">query_string</td><td style="vertical-align:top;">:</td><td><div></div></td></tr><tr><td style="font-weight:bold;vertical-align:top;">remote_addr</td><td style="vertical-align:top;">:</td><td><div>127.0.0.1</div></td></tr><tr><td style="font-weight:bold;vertical-align:top;">remote_port</td><td style="vertical-align:top;">:</td><td><div>56786</div></td></tr><tr><td style="font-weight:bold;vertical-align:top;">request_method</td><td style="vertical-align:top;">:</td><td><div>GET</div></td></tr><tr><td style="font-weight:bold;vertical-align:top;">request_uri</td><td style="vertical-align:top;">:</td><td><div>/TG/default</div></td></tr><tr><td style="font-weight:bold;vertical-align:top;">script_name</td><td style="vertical-align:top;">:</td><td><div></div></td></tr><tr><td style="font-weight:bold;vertical-align:top;">server_name</td><td style="vertical-align:top;">:</td><td><div>samara-X450LA</div></td></tr><tr><td style="font-weight:bold;vertical-align:top;">server_port</td><td style="vertical-align:top;">:</td><td><div>8000</div></td></tr><tr><td style="font-weight:bold;vertical-align:top;">server_protocol</td><td style="vertical-align:top;">:</td><td><div>HTTP/1.1</div></td></tr><tr><td style="font-weight:bold;vertical-align:top;">server_software</td><td style="vertical-align:top;">:</td><td><div>Rocket 1.2.6</div></td></tr><tr><td style="font-weight:bold;vertical-align:top;">web2py_path</td><td style="vertical-align:top;">:</td><td><div>/home/samara/Documentos/web2py</div></td></tr><tr><td style="font-weight:bold;vertical-align:top;">web2py_version</td><td style="vertical-align:top;">:</td><td><div>2.11.2-stable+timestamp.2015.05.30.16.33.24</div></td></tr><tr><td style="font-weight:bold;vertical-align:top;">wsgi.errors</td><td style="vertical-align:top;">:</td><td><div>&lt;open file &#x27;&lt;stderr&gt;&#x27;, mode &#x27;w&#x27; at 0x7f3b9fed01e0&gt;</div></td></tr><tr><td style="font-weight:bold;vertical-align:top;">wsgi.file_wrapper</td><td style="vertical-align:top;">:</td><td><div>&lt;class wsgiref.util.FileWrapper at 0x7f3b8df4df58&gt;</div></td></tr><tr><td style="font-weight:bold;vertical-align:top;">wsgi.input</td><td style="vertical-align:top;">:</td><td><div>&lt;socket._fileobject object at 0x7f3b9dba5cd0&gt;</div></td></tr><tr><td style="font-weight:bold;vertical-align:top;">wsgi.multiprocess</td><td style="vertical-align:top;">:</td><td><div>False</div></td></tr><tr><td style="font-weight:bold;vertical-align:top;">wsgi.multithread</td><td style="vertical-align:top;">:</td><td><div>True</div></td></tr><tr><td style="font-weight:bold;vertical-align:top;">wsgi.run_once</td><td style="vertical-align:top;">:</td><td><div>False</div></td></tr><tr><td style="font-weight:bold;vertical-align:top;">wsgi.url_scheme</td><td style="vertical-align:top;">:</td><td><div>http</div></td></tr><tr><td style="font-weight:bold;vertical-align:top;">wsgi.version</td><td style="vertical-align:top;">:</td><td><div><table><tr><td><div>1</div></td></tr><tr><td><div>0</div></td></tr></table></div></td></tr><tr><td style="font-weight:bold;vertical-align:top;">wsgi_errors</td><td style="vertical-align:top;">:</td><td><div>&lt;open file &#x27;&lt;stderr&gt;&#x27;, mode &#x27;w&#x27; at 0x7f3b9fed01e0&gt;</div></td></tr><tr><td style="font-weight:bold;vertical-align:top;">wsgi_file_wrapper</td><td style="vertical-align:top;">:</td><td><div>&lt;class wsgiref.util.FileWrapper at 0x7f3b8df4df58&gt;</div></td></tr><tr><td style="font-weight:bold;vertical-align:top;">wsgi_input</td><td style="vertical-align:top;">:</td><td><div>&lt;socket._fileobject object at 0x7f3b9dba5cd0&gt;</div></td></tr><tr><td style="font-weight:bold;vertical-align:top;">wsgi_multiprocess</td><td style="vertical-align:top;">:</td><td><div>False</div></td></tr><tr><td style="font-weight:bold;vertical-align:top;">wsgi_multithread</td><td style="vertical-align:top;">:</td><td><div>True</div></td></tr><tr><td style="font-weight:bold;vertical-align:top;">wsgi_run_once</td><td style="vertical-align:top;">:</td><td><div>False</div></td></tr><tr><td style="font-weight:bold;vertical-align:top;">wsgi_url_scheme</td><td style="vertical-align:top;">:</td><td><div>http</div></td></tr><tr><td style="font-weight:bold;vertical-align:top;">wsgi_version</td><td style="vertical-align:top;">:</td><td><div><table><tr><td><div>1</div></td></tr><tr><td><div>0</div></td></tr></table></div></td></tr></table></div></td></tr><tr><td style="font-weight:bold;vertical-align:top;">extension</td><td style="vertical-align:top;">:</td><td><div>html</div></td></tr><tr><td style="font-weight:bold;vertical-align:top;">folder</td><td style="vertical-align:top;">:</td><td><div>/home/samara/Documentos/web2py/applications/TG/</div></td></tr><tr><td style="font-weight:bold;vertical-align:top;">function</td><td style="vertical-align:top;">:</td><td><div>index</div></td></tr><tr><td style="font-weight:bold;vertical-align:top;">global_settings</td><td style="vertical-align:top;">:</td><td><div><table><tr><td style="font-weight:bold;vertical-align:top;">app_folders</td><td style="vertical-align:top;">:</td><td><div>set([&#x27;/home/samara/Documentos/web2py/applications/TG/&#x27;])</div></td></tr><tr><td style="font-weight:bold;vertical-align:top;">applications_parent</td><td style="vertical-align:top;">:</td><td><div>/home/samara/Documentos/web2py</div></td></tr><tr><td style="font-weight:bold;vertical-align:top;">cmd_args</td><td style="vertical-align:top;">:</td><td><div><table></table></div></td></tr><tr><td style="font-weight:bold;vertical-align:top;">cmd_options</td><td style="vertical-align:top;">:</td><td><div>&lt;Values at 0x7f3b8c140ea8: {&#x27;verbose&#x27;: False, &#x27;ip&#x27;: &#x27;127.0.0.1&#x27;, &#x27;debuglevel&#x27;: 30, &#x27;with_scheduler&#x27;: False, &#x27;ips&#x27;: [&#x27;127.0.1.1&#x27;], &#x27;shutdown_timeout&#x27;: 5, &#x27;taskbar&#x27;: False, &#x27;with_coverage&#x27;: False, &#x27;scheduler_groups&#x27;: None, &#x27;port&#x27;: 8000, &#x27;maxthreads&#x27;: None, &#x27;softcron&#x27;: False, &#x27;server_name&#x27;: &#x27;samara-X450LA&#x27;, &#x27;bpython&#x27;: False, &#x27;nogui&#x27;: False, &#x27;pid_filename&#x27;: &#x27;httpserver.pid&#x27;, &#x27;print_errors&#x27;: False, &#x27;extcron&#x27;: False, &#x27;runcron&#x27;: False, &#x27;run_system_tests&#x27;: False, &#x27;test&#x27;: None, &#x27;folder&#x27;: &#x27;/home/samara/Documentos/web2py&#x27;, &#x27;config&#x27;: &#x27;&#x27;, &#x27;minthreads&#x27;: None, &#x27;shell&#x27;: None, &#x27;run&#x27;: &#x27;&#x27;, &#x27;log_filename&#x27;: &#x27;httpserver.log&#x27;, &#x27;profiler_dir&#x27;: None, &#x27;args&#x27;: [&#x27;&#x27;], &#x27;socket_timeout&#x27;: 5, &#x27;ssl_ca_certificate&#x27;: None, &#x27;scheduler&#x27;: None, &#x27;interfaces&#x27;: None, &#x27;ssl_private_key&#x27;: &#x27;&#x27;, &#x27;gae&#x27;: None, &#x27;password&#x27;: &#x27;admin&#x27;, &#x27;request_queue_size&#x27;: 5, &#x27;ssl_certificate&#x27;: &#x27;&#x27;, &#x27;cronjob&#x27;: False, &#x27;numthreads&#x27;: None, &#x27;quiet&#x27;: False, &#x27;import_models&#x27;: False, &#x27;timeout&#x27;: 10, &#x27;plain&#x27;: False, &#x27;nobanner&#x27;: False}&gt;</div></td></tr><tr><td style="font-weight:bold;vertical-align:top;">db_sessions</td><td style="vertical-align:top;">:</td><td><div>set([])</div></td></tr><tr><td style="font-weight:bold;vertical-align:top;">debugging</td><td style="vertical-align:top;">:</td><td><div>False</div></td></tr><tr><td style="font-weight:bold;vertical-align:top;">gluon_parent</td><td style="vertical-align:top;">:</td><td><div>/home/samara/Documentos/web2py</div></td></tr><tr><td style="font-weight:bold;vertical-align:top;">is_jython</td><td style="vertical-align:top;">:</td><td><div>False</div></td></tr><tr><td style="font-weight:bold;vertical-align:top;">is_pypy</td><td style="vertical-align:top;">:</td><td><div>False</div></td></tr><tr><td style="font-weight:bold;vertical-align:top;">is_source</td><td style="vertical-align:top;">:</td><td><div>True</div></td></tr><tr><td style="font-weight:bold;vertical-align:top;">local_hosts</td><td style="vertical-align:top;">:</td><td><div><table><tr><td><div>samara-X450LA</div></td></tr><tr><td><div>::1</div></td></tr><tr><td><div>127.0.1.1</div></td></tr><tr><td><div>::ffff:127.0.0.1</div></td></tr><tr><td><div>127.0.0.1</div></td></tr></table></div></td></tr><tr><td style="font-weight:bold;vertical-align:top;">web2py_version</td><td style="vertical-align:top;">:</td><td><div>2.11.2-stable+timestamp.2015.05.30.16.33.24</div></td></tr></table></div></td></tr><tr><td style="font-weight:bold;vertical-align:top;">is_https</td><td style="vertical-align:top;">:</td><td><div>False</div></td></tr><tr><td style="font-weight:bold;vertical-align:top;">is_local</td><td style="vertical-align:top;">:</td><td><div>True</div></td></tr><tr><td style="font-weight:bold;vertical-align:top;">is_restful</td><td style="vertical-align:top;">:</td><td><div>False</div></td></tr><tr><td style="font-weight:bold;vertical-align:top;">is_sheduler</td><td style="vertical-align:top;">:</td><td><div>None</div></td></tr><tr><td style="font-weight:bold;vertical-align:top;">is_shell</td><td style="vertical-align:top;">:</td><td><div>None</div></td></tr><tr><td style="font-weight:bold;vertical-align:top;">now</td><td style="vertical-align:top;">:</td><td><div>datetime.datetime(2015, 10, 1, 22, 19, 42, 990583)</div></td></tr><tr><td style="font-weight:bold;vertical-align:top;">raw_args</td><td style="vertical-align:top;">:</td><td><div></div></td></tr><tr><td style="font-weight:bold;vertical-align:top;">raw_extension</td><td style="vertical-align:top;">:</td><td><div>None</div></td></tr><tr><td style="font-weight:bold;vertical-align:top;">url</td><td style="vertical-align:top;">:</td><td><div>/TG/default</div></td></tr><tr><td style="font-weight:bold;vertical-align:top;">utcnow</td><td style="vertical-align:top;">:</td><td><div>datetime.datetime(2015, 10, 2, 1, 19, 42, 990614)</div></td></tr><tr><td style="font-weight:bold;vertical-align:top;">wsgi</td><td style="vertical-align:top;">:</td><td><div>&lt;gluon.main.LazyWSGI object at 0x7f3b9dbc3190&gt;</div></td></tr></table></div>'
tRp68
sS'frames'
p69
(lp70
(dp71
S'file'
p72
S'/home/samara/Documentos/web2py/gluon/restricted.py'
p73
sS'dump'
p74
(dp75
S'environment'
p76
S"{'A': <class 'gluon.html.A'>, 'ANY_OF': <class 'gluon.validators.ANY_OF'>, 'ASSIGNJS': <function ASSIGNJS>, 'AppConfig': <function AppConfig>, 'Auth': <class 'gluon.tools.Auth'>, 'B': <class 'gluon.html.B'>, 'BEAUTIFY': <class 'gluon.html.BEAUTIFY'>, 'BODY': <class 'gluon.html.BODY'>, 'BR': <class 'gluon.html.BR'>, 'BUTTON': <class 'gluon.html.BUTTON'>, ...}"
p77
sS'ccode'
p78
S'<code object <module> at 0x7f3b843db030, file "/...os/web2py/applications/TG/models/db.py", line 13>'
p79
ssS'lnum'
p80
I227
sS'lines'
p81
(dp82
I224
S'            ccode = code'
p83
sI225
S'        else:'
p84
sI226
S'            ccode = compile2(code, layer)'
p85
sI227
S'        exec ccode in environment'
p86
sI228
S'    except HTTP:'
p87
sI229
S'        raise'
p88
sI230
S'    except RestrictedError:'
p89
sI231
S'        # do not encapsulate (obfuscate) the original RestrictedError'
p90
sI222
S'    try:'
p91
sI223
S'        if isinstance(code, types.CodeType):'
p92
ssS'call'
p93
S'(code="# -*- coding: utf-8 -*-\\n\\n#######################...-mail\')\\ndb.auth_user.password.label=T(\'Password\')", environment={\'A\': <class \'gluon.html.A\'>, \'ANY_OF\': <class \'gluon.validators.ANY_OF\'>, \'ASSIGNJS\': <function ASSIGNJS>, \'AppConfig\': <function AppConfig>, \'Auth\': <class \'gluon.tools.Auth\'>, \'B\': <class \'gluon.html.B\'>, \'BEAUTIFY\': <class \'gluon.html.BEAUTIFY\'>, \'BODY\': <class \'gluon.html.BODY\'>, \'BR\': <class \'gluon.html.BR\'>, \'BUTTON\': <class \'gluon.html.BUTTON\'>, ...}, layer=\'/home/samara/Documentos/web2py/applications/TG/models/db.py\')'
p94
sS'func'
p95
S'restricted'
p96
sa(dp97
g72
S'/home/samara/Documentos/web2py/applications/TG/models/db.py'
p98
sg74
(dp99
S'builtinformat'
p100
S'<built-in function format>'
p101
ssg80
I98
sg81
(dp102
I96
S"db.define_table('country',"
p103
sI97
S"    Field('name',requires=IS_NOT_EMPTY(),unique=True,length=128,label='Nome do Pais'),"
p104
sI98
S"    format='%(name)s')"
p105
sI99
S''
sI100
S''
sI101
S"db.define_table('province',"
p106
sI102
S"    Field('name',requires=IS_NOT_EMPTY(),unique=True,length=128,label='Nome do Estado/Provincia'),"
p107
sI93
S'# auth.enable_record_versioning(db)'
p108
sI94
S''
sI95
S''
ssg93
S'()'
p109
sg95
S'<module>'
p110
sa(dp111
g72
S'/home/samara/Documentos/web2py/gluon/packages/dal/pydal/base.py'
p112
sg74
(dp113
S'fields'
p114
S'(<pydal.objects.Field object>,)'
p115
sS'self'
p116
S'<DAL uri="postgres:******@188.166.24.73/TG_Samara">'
p117
sS'args'
p118
S"{'format': '%(name)s'}"
p119
sS'tablename'
p120
S"'country'"
p121
sS'table'
p122
S'undefined'
p123
sS'self.lazy_define_table'
p124
S'<bound method DAL.lazy_define_table of <DAL uri="postgres:******@188.166.24.73/TG_Samara">>'
p125
ssg80
I819
sg81
(dp126
I814
S'                    % (tablename,invalid_args))'
p127
sI815
S'        if self._lazy_tables and tablename not in self._LAZY_TABLES:'
p128
sI816
S'            self._LAZY_TABLES[tablename] = (tablename,fields,args)'
p129
sI817
S'            table = None'
p130
sI818
S'        else:'
p131
sI819
S'            table = self.lazy_define_table(tablename,*fields,**args)'
p132
sI820
S'        if not tablename in self.tables:'
p133
sI821
S'            self.tables.append(tablename)'
p134
sI822
S'        return table'
p135
sI823
S''
ssg93
S'(self=<DAL uri="postgres:******@188.166.24.73/TG_Samara">, tablename=\'country\', *fields=(<pydal.objects.Field object>,), **args={\'format\': \'%(name)s\'})'
p136
sg95
S'define_table'
p137
sa(dp138
g72
S'/home/samara/Documentos/web2py/gluon/packages/dal/pydal/base.py'
p139
sg74
(dp140
S'polymodel'
p141
S'None'
p142
ssg80
I858
sg81
(dp143
I853
S'            try:'
p144
sI854
S'                GLOBAL_LOCKER.acquire()'
p145
sI855
S'                self._lastsql = self._adapter.create_table('
p146
sI856
S'                    table,migrate=migrate,'
p147
sI857
S'                    fake_migrate=fake_migrate,'
p148
sI858
S'                    polymodel=polymodel)'
p149
sI859
S'            finally:'
p150
sI860
S'                GLOBAL_LOCKER.release()'
p151
sI861
S'        else:'
p152
sI862
S'            table._dbt = None'
p153
ssg93
S'(self=<DAL uri="postgres:******@188.166.24.73/TG_Samara">, tablename=\'country\', *fields=(<pydal.objects.Field object>,), **args={\'format\': \'%(name)s\'})'
p154
sg95
S'lazy_define_table'
p155
sa(dp156
g72
S'/home/samara/Documentos/web2py/gluon/packages/dal/pydal/adapters/base.py'
p157
sg74
(dp158
S'query'
p159
S"'CREATE TABLE country(\\n    id SERIAL PRIMARY KEY,\\n    name VARCHAR(128) UNIQUE\\n);'"
p160
sS'self'
p161
S'<pydal.adapters.postgres.PostgreSQLAdapter object>'
p162
sS'table'
p163
S'<Table country (id,name)>'
p164
sS'self.create_sequence_and_triggers'
p165
S'<bound method PostgreSQLAdapter.create_sequence_...ydal.adapters.postgres.PostgreSQLAdapter object>>'
p166
ssg80
I467
sg81
(dp167
I462
S'            if table._dbt:'
p168
sI463
S"                self.log('timestamp: %s\\n%s\\n'"
p169
sI464
S'                         % (datetime.datetime.today().isoformat(),'
p170
sI465
S'                            query), table)'
p171
sI466
S'            if not fake_migrate:'
p172
sI467
S'                self.create_sequence_and_triggers(query,table)'
p173
sI468
S'                table._db.commit()'
p174
sI469
S'                # Postgres geom fields are added now,'
p175
sI470
S'                # after the table has been created'
p176
sI471
S'                for query in postcreation_fields:'
p177
ssg93
S'(self=<pydal.adapters.postgres.PostgreSQLAdapter object>, table=<Table country (id,name)>, migrate=True, fake_migrate=False, polymodel=None)'
p178
sg95
S'create_table'
p179
sa(dp180
g72
S'/home/samara/Documentos/web2py/gluon/packages/dal/pydal/adapters/postgres.py'
p181
sg74
(dp182
S'query'
p183
S"'CREATE TABLE country(\\n    id SERIAL PRIMARY KEY,\\n    name VARCHAR(128) UNIQUE\\n);'"
p184
sS'self'
p185
S'<pydal.adapters.postgres.PostgreSQLAdapter object>'
p186
sS'self.execute'
p187
S'<bound method PostgreSQLAdapter.execute of <pydal.adapters.postgres.PostgreSQLAdapter object>>'
p188
ssg80
I92
sg81
(dp189
I96
S"    def __init__(self, db,uri, pool_size=0, folder=None, db_codec ='UTF-8',"
p190
sI87
S'    def create_sequence_and_triggers(self, query, table, **args):'
p191
sI88
S'        # following lines should only be executed if table._sequence_name does not exist'
p192
sI89
S"        # self.execute('CREATE SEQUENCE %s;' % table._sequence_name)"
p193
sI90
S'        # self.execute("ALTER TABLE %s ALTER COLUMN %s SET DEFAULT NEXTVAL(\'%s\');" \\'
p194
sI91
S'        #              % (table._tablename, table._fieldname, table._sequence_name))'
p195
sI92
S'        self.execute(query)'
p196
sI93
S''
sI94
S"    REGEX_URI = re.compile('^(?P<user>[^:@]+)(\\:(?P<password>[^@]*))?@(?P<host>[^\\:@]+)(\\:(?P<port>[0-9]+))?/(?P<db>[^\\?]+)(\\?sslmode=(?P<sslmode>.+))?$')"
p197
sI95
S''
ssg93
S"(self=<pydal.adapters.postgres.PostgreSQLAdapter object>, query='CREATE TABLE country(\\n    id SERIAL PRIMARY KEY,\\n    name VARCHAR(128) UNIQUE\\n);', table=<Table country (id,name)>, **args={})"
p198
sg95
S'create_sequence_and_triggers'
p199
sa(dp200
g72
S'/home/samara/Documentos/web2py/gluon/packages/dal/pydal/adapters/base.py'
p201
sg74
(dp202
S'a'
S"('CREATE TABLE country(\\n    id SERIAL PRIMARY KEY,\\n    name VARCHAR(128) UNIQUE\\n);',)"
p203
sS'self'
p204
S'<pydal.adapters.postgres.PostgreSQLAdapter object>'
p205
sS'b'
S'{}'
p206
sS'self.log_execute'
p207
S'<bound method PostgreSQLAdapter.log_execute of <pydal.adapters.postgres.PostgreSQLAdapter object>>'
p208
ssg80
I1350
sg81
(dp209
I1345
S'        self.db._timings.append((command,time.time()-t0))'
p210
sI1346
S'        del self.db._timings[:-TIMINGSSIZE]'
p211
sI1347
S'        return ret'
p212
sI1348
S''
sI1349
S'    def execute(self, *a, **b):'
p213
sI1350
S'        return self.log_execute(*a, **b)'
p214
sI1351
S''
sI1352
S'    def represent(self, obj, fieldtype):'
p215
sI1353
S'        field_is_type = fieldtype.startswith'
p216
sI1354
S'        if isinstance(obj, CALLABLETYPES):'
p217
ssg93
S"(self=<pydal.adapters.postgres.PostgreSQLAdapter object>, *a=('CREATE TABLE country(\\n    id SERIAL PRIMARY KEY,\\n    name VARCHAR(128) UNIQUE\\n);',), **b={})"
p218
sg95
S'execute'
p219
sa(dp220
g72
S'/home/samara/Documentos/web2py/gluon/packages/dal/pydal/adapters/base.py'
p221
sg74
(dp222
S'a'
S"('CREATE TABLE country(\\n    id SERIAL PRIMARY KEY,\\n    name VARCHAR(128) UNIQUE\\n);',)"
p223
sS'b'
g206
sS'self'
p224
S'<pydal.adapters.postgres.PostgreSQLAdapter object>'
p225
sS'ret'
p226
g123
sS'self.cursor'
p227
S'<cursor object at 0x7f3b8c034ce8; closed: 0>'
p228
sS'command'
p229
S"'CREATE TABLE country(\\n    id SERIAL PRIMARY KEY,\\n    name VARCHAR(128) UNIQUE\\n);'"
p230
sS'self.cursor.execute'
p231
S'<built-in method execute of psycopg2._psycopg.cursor object>'
p232
ssg80
I1344
sg81
(dp233
I1344
S'        ret = self.cursor.execute(command, *a[1:], **b)'
p234
sI1345
S'        self.db._timings.append((command,time.time()-t0))'
p235
sI1346
S'        del self.db._timings[:-TIMINGSSIZE]'
p236
sI1347
S'        return ret'
p237
sI1348
S''
sI1339
S'            command = self.filter_sql_command(command)'
p238
sI1340
S'        if self.db._debug:'
p239
sI1341
S"            self.db.logger.debug('SQL: %s' % command)"
p240
sI1342
S'        self.db._lastsql = command'
p241
sI1343
S'        t0 = time.time()'
p242
ssg93
S"(self=<pydal.adapters.postgres.PostgreSQLAdapter object>, *a=('CREATE TABLE country(\\n    id SERIAL PRIMARY KEY,\\n    name VARCHAR(128) UNIQUE\\n);',), **b={})"
p243
sg95
S'log_execute'
p244
sasS'pyver'
p245
S'Python 2.7.6: /usr/bin/python2.7 (prefix: /usr)'
p246
sS'session'
p247
g67
(S's\x1a\x00\x00\x00<div><table></table></div>'
tRp248
sS'etype'
p249
S"<class 'psycopg2.ProgrammingError'>"
p250
sS'date'
p251
S'Thu Oct  1 22:19:45 2015'
p252
sS'response'
p253
g67
(S's\xeb\x17\x00\x00<div><table><tr><td style="font-weight:bold;vertical-align:top;">body</td><td style="vertical-align:top;">:</td><td><div>&lt;cStringIO.StringO object at 0x7f3b9dbacfb8&gt;</div></td></tr><tr><td style="font-weight:bold;vertical-align:top;">cookies</td><td style="vertical-align:top;">:</td><td><div><table><tr><td style="font-weight:bold;vertical-align:top;">session_id_tg</td><td style="vertical-align:top;">:</td><td><div>127.0.0.1-8020da04-a72d-4bab-b001-5000f8361e8b<table><tr><td style="font-weight:bold;vertical-align:top;">comment</td><td style="vertical-align:top;">:</td><td><div></div></td></tr><tr><td style="font-weight:bold;vertical-align:top;">domain</td><td style="vertical-align:top;">:</td><td><div></div></td></tr><tr><td style="font-weight:bold;vertical-align:top;">expires</td><td style="vertical-align:top;">:</td><td><div></div></td></tr><tr><td style="font-weight:bold;vertical-align:top;">httponly</td><td style="vertical-align:top;">:</td><td><div></div></td></tr><tr><td style="font-weight:bold;vertical-align:top;">max-age</td><td style="vertical-align:top;">:</td><td><div></div></td></tr><tr><td style="font-weight:bold;vertical-align:top;">path</td><td style="vertical-align:top;">:</td><td><div>/</div></td></tr><tr><td style="font-weight:bold;vertical-align:top;">secure</td><td style="vertical-align:top;">:</td><td><div></div></td></tr><tr><td style="font-weight:bold;vertical-align:top;">version</td><td style="vertical-align:top;">:</td><td><div></div></td></tr></table></div></td></tr></table></div></td></tr><tr><td style="font-weight:bold;vertical-align:top;">delimiters</td><td style="vertical-align:top;">:</td><td><div><table><tr><td><div>{{</div></td></tr><tr><td><div>}}</div></td></tr></table></div></td></tr><tr><td style="font-weight:bold;vertical-align:top;">files</td><td style="vertical-align:top;">:</td><td><div><table></table></div></td></tr><tr><td style="font-weight:bold;vertical-align:top;">flash</td><td style="vertical-align:top;">:</td><td><div></div></td></tr><tr><td style="font-weight:bold;vertical-align:top;">form_label_separator</td><td style="vertical-align:top;">:</td><td><div></div></td></tr><tr><td style="font-weight:bold;vertical-align:top;">formstyle</td><td style="vertical-align:top;">:</td><td><div>bootstrap3_inline</div></td></tr><tr><td style="font-weight:bold;vertical-align:top;">generic_patterns</td><td style="vertical-align:top;">:</td><td><div><table><tr><td><div>*</div></td></tr></table></div></td></tr><tr><td style="font-weight:bold;vertical-align:top;">headers</td><td style="vertical-align:top;">:</td><td><div><table><tr><td style="font-weight:bold;vertical-align:top;">X-Powered-By</td><td style="vertical-align:top;">:</td><td><div>web2py</div></td></tr></table></div></td></tr><tr><td style="font-weight:bold;vertical-align:top;">menu</td><td style="vertical-align:top;">:</td><td><div><table></table></div></td></tr><tr><td style="font-weight:bold;vertical-align:top;">meta</td><td style="vertical-align:top;">:</td><td><div><table></table></div></td></tr><tr><td style="font-weight:bold;vertical-align:top;">models_to_run</td><td style="vertical-align:top;">:</td><td><div><table><tr><td><div>^\\w+\\.py$</div></td></tr><tr><td><div>^default/\\w+\\.py$</div></td></tr><tr><td><div>^default/index/\\w+\\.py$</div></td></tr></table></div></td></tr><tr><td style="font-weight:bold;vertical-align:top;">postprocessing</td><td style="vertical-align:top;">:</td><td><div><table></table></div></td></tr><tr><td style="font-weight:bold;vertical-align:top;">session_client</td><td style="vertical-align:top;">:</td><td><div>127.0.0.1</div></td></tr><tr><td style="font-weight:bold;vertical-align:top;">session_cookie_compression_level</td><td style="vertical-align:top;">:</td><td><div>None</div></td></tr><tr><td style="font-weight:bold;vertical-align:top;">session_cookie_expires</td><td style="vertical-align:top;">:</td><td><div>None</div></td></tr><tr><td style="font-weight:bold;vertical-align:top;">session_cookie_key</td><td style="vertical-align:top;">:</td><td><div>None</div></td></tr><tr><td style="font-weight:bold;vertical-align:top;">session_data_name</td><td style="vertical-align:top;">:</td><td><div>session_data_tg</div></td></tr><tr><td style="font-weight:bold;vertical-align:top;">session_file</td><td style="vertical-align:top;">:</td><td><div>&lt;open file &#x27;/home/samara/Documentos/web2py/applications/TG/sessions/1ef/058/127.0.0.1-8020da04-a72d-4bab-b001-5000f8361e8b&#x27;, mode &#x27;rb+&#x27; at 0x7f3b9dbb90c0&gt;</div></td></tr><tr><td style="font-weight:bold;vertical-align:top;">session_filename</td><td style="vertical-align:top;">:</td><td><div>/home/samara/Documentos/web2py/applications/TG/sessions/127.0.0.1-8020da04-a72d-4bab-b001-5000f8361e8b</div></td></tr><tr><td style="font-weight:bold;vertical-align:top;">session_hash</td><td style="vertical-align:top;">:</td><td><div>c0762cbf4baf7f9af97c051e7fcb8083</div></td></tr><tr><td style="font-weight:bold;vertical-align:top;">session_id</td><td style="vertical-align:top;">:</td><td><div>127.0.0.1-8020da04-a72d-4bab-b001-5000f8361e8b</div></td></tr><tr><td style="font-weight:bold;vertical-align:top;">session_id_name</td><td style="vertical-align:top;">:</td><td><div>session_id_tg</div></td></tr><tr><td style="font-weight:bold;vertical-align:top;">session_locked</td><td style="vertical-align:top;">:</td><td><div>True</div></td></tr><tr><td style="font-weight:bold;vertical-align:top;">session_masterapp</td><td style="vertical-align:top;">:</td><td><div>TG</div></td></tr><tr><td style="font-weight:bold;vertical-align:top;">session_new</td><td style="vertical-align:top;">:</td><td><div>False</div></td></tr><tr><td style="font-weight:bold;vertical-align:top;">session_storage_type</td><td style="vertical-align:top;">:</td><td><div>file</div></td></tr><tr><td style="font-weight:bold;vertical-align:top;">status</td><td style="vertical-align:top;">:</td><td><div>200</div></td></tr><tr><td style="font-weight:bold;vertical-align:top;">view</td><td style="vertical-align:top;">:</td><td><div>default/index.html</div></td></tr></table></div>'
tRp254
sS'locals'
p255
(dp256
S'a'
S"('CREATE TABLE country(\\n    id SERIAL PRIMARY KEY,\\n    name VARCHAR(128) UNIQUE\\n);',)"
p257
sS'self'
p258
S'<pydal.adapters.postgres.PostgreSQLAdapter object>'
p259
sS'b'
g206
sS'command'
p260
S"'CREATE TABLE country(\\n    id SERIAL PRIMARY KEY,\\n    name VARCHAR(128) UNIQUE\\n);'"
p261
sS't0'
p262
S'1443748785.141088'
p263
sssS'traceback'
p264
S'Traceback (most recent call last):\n  File "/home/samara/Documentos/web2py/gluon/restricted.py", line 227, in restricted\n    exec ccode in environment\n  File "/home/samara/Documentos/web2py/applications/TG/models/db.py", line 98, in <module>\n    format=\'%(name)s\')\n  File "/home/samara/Documentos/web2py/gluon/packages/dal/pydal/base.py", line 819, in define_table\n    table = self.lazy_define_table(tablename,*fields,**args)\n  File "/home/samara/Documentos/web2py/gluon/packages/dal/pydal/base.py", line 858, in lazy_define_table\n    polymodel=polymodel)\n  File "/home/samara/Documentos/web2py/gluon/packages/dal/pydal/adapters/base.py", line 467, in create_table\n    self.create_sequence_and_triggers(query,table)\n  File "/home/samara/Documentos/web2py/gluon/packages/dal/pydal/adapters/postgres.py", line 92, in create_sequence_and_triggers\n    self.execute(query)\n  File "/home/samara/Documentos/web2py/gluon/packages/dal/pydal/adapters/base.py", line 1350, in execute\n    return self.log_execute(*a, **b)\n  File "/home/samara/Documentos/web2py/gluon/packages/dal/pydal/adapters/base.py", line 1344, in log_execute\n    ret = self.cursor.execute(command, *a[1:], **b)\nProgrammingError: relation "country" already exists\n\n'
p265
s.